; Function Attrs: mustprogress noreturn uwtable
define void @_ZNK5arrow6Status5AbortEv(ptr noundef nonnull readonly align 8 captures(none) dereferenceable(8) %0) local_unnamed_addr #9 align 2 personality ptr @__gxx_personality_v0 {
  %2 = alloca %"class.std::__cxx11::basic_string", align 8
  call void @llvm.lifetime.start.p0(i64 32, ptr nonnull %2) #19
  %3 = getelementptr inbounds nuw i8, ptr %2, i64 16
  store ptr %3, ptr %2, align 8, !tbaa !3
  %4 = getelementptr inbounds nuw i8, ptr %2, i64 8
  store i64 0, ptr %4, align 8, !tbaa !12
  store i8 0, ptr %3, align 8, !tbaa !14
  invoke void @_ZNK5arrow6Status5AbortERKNSt7__cxx1112basic_stringIcSt11char_traitsIcESaIcEEE(ptr noundef nonnull align 8 dereferenceable(8) %0, ptr noundef nonnull align 8 dereferenceable(32) %2) #22
          to label %5 unwind label %6

5:                                                ; preds = %1
  unreachable

6:                                                ; preds = %1
  %7 = landingpad { ptr, i32 }
          cleanup
  %8 = load ptr, ptr %2, align 8, !tbaa !9
  %9 = icmp eq ptr %8, %3
  br i1 %9, label %_ZNKSt7__cxx1112basic_stringIcSt11char_traitsIcESaIcEE11_M_is_localEv.exit.thread.i.i, label %_ZNKSt7__cxx1112basic_stringIcSt11char_traitsIcESaIcEE11_M_is_localEv.exit.i.i

_ZNKSt7__cxx1112basic_stringIcSt11char_traitsIcESaIcEE11_M_is_localEv.exit.thread.i.i: ; preds = %6
  %10 = load i64, ptr %4, align 8, !tbaa !12
  %11 = icmp ult i64 %10, 16
  call void @llvm.assume(i1 %11)
  br label %_ZNSt7__cxx1112basic_stringIcSt11char_traitsIcESaIcEED2Ev.exit

_ZNKSt7__cxx1112basic_stringIcSt11char_traitsIcESaIcEE11_M_is_localEv.exit.i.i: ; preds = %6
  %12 = load i64, ptr %3, align 8, !tbaa !14
  %13 = add i64 %12, 1
  call void @_ZdlPvm(ptr noundef %8, i64 noundef %13) #20
  br label %_ZNSt7__cxx1112basic_stringIcSt11char_traitsIcESaIcEED2Ev.exit

_ZNSt7__cxx1112basic_stringIcSt11char_traitsIcESaIcEED2Ev.exit: ; preds = %_ZNKSt7__cxx1112basic_stringIcSt11char_traitsIcESaIcEE11_M_is_localEv.exit.thread.i.i, %_ZNKSt7__cxx1112basic_stringIcSt11char_traitsIcESaIcEE11_M_is_localEv.exit.i.i
  call void @llvm.lifetime.end.p0(i64 32, ptr nonnull %2) #19
  resume { ptr, i32 } %7
}